target datalayout = "e-m:e-p270:32:32-p271:32:32-p272:64:64-i64:64-i128:128-f80:128-n8:16:32:64-S128"
target triple = "x86_64-pc-linux-gnu"

%struct.archive_read_filter = type { i64, ptr, ptr, ptr, ptr, ptr, ptr, i32, i32, i32, ptr, i64, ptr, i64, ptr, i64, ptr, i64, i8, i8, i8 }
%struct.private_data = type { ptr, i64, i64, i32, i32, i64, i64, ptr, i32, i32, i32, i32, i32, i32, i32, i32, i32, [65536 x i8], [65536 x i16], ptr, [65300 x i8] }

; Function Attrs: nounwind uwtable
define internal i64 @compress_filter_read(ptr noundef %0, ptr noundef %1) #0 {
  %3 = alloca i64, align 8
  %4 = alloca ptr, align 8
  %5 = alloca ptr, align 8
  %6 = alloca ptr, align 8
  %7 = alloca ptr, align 8
  %8 = alloca ptr, align 8
  %9 = alloca ptr, align 8
  %10 = alloca i32, align 4
  store ptr %0, ptr %4, align 8
  store ptr %1, ptr %5, align 8
  %11 = load ptr, ptr %4, align 8
  %12 = getelementptr inbounds %struct.archive_read_filter, ptr %11, i32 0, i32 5
  %13 = load ptr, ptr %12, align 8
  store ptr %13, ptr %6, align 8
  %14 = load ptr, ptr %6, align 8
  %15 = getelementptr inbounds %struct.private_data, ptr %14, i32 0, i32 9
  %16 = load i32, ptr %15, align 4
  %17 = icmp ne i32 %16, 0
  br i1 %17, label %18, label %20

18:                                               ; preds = %2
  %19 = load ptr, ptr %5, align 8
  store ptr null, ptr %19, align 8
  store i64 0, ptr %3, align 8
  br label %83

20:                                               ; preds = %2
  %21 = load ptr, ptr %6, align 8
  %22 = getelementptr inbounds %struct.private_data, ptr %21, i32 0, i32 7
  %23 = load ptr, ptr %22, align 8
  store ptr %23, ptr %8, align 8
  store ptr %23, ptr %7, align 8
  %24 = load ptr, ptr %8, align 8
  %25 = load ptr, ptr %6, align 8
  %26 = getelementptr inbounds %struct.private_data, ptr %25, i32 0, i32 6
  %27 = load i64, ptr %26, align 8
  %28 = getelementptr inbounds i8, ptr %24, i64 %27
  store ptr %28, ptr %9, align 8
  br label %29

29:                                               ; preds = %74, %20
  %30 = load ptr, ptr %7, align 8
  %31 = load ptr, ptr %9, align 8
  %32 = icmp ult ptr %30, %31
  br i1 %32, label %33, label %39

33:                                               ; preds = %29
  %34 = load ptr, ptr %6, align 8
  %35 = getelementptr inbounds %struct.private_data, ptr %34, i32 0, i32 9
  %36 = load i32, ptr %35, align 4
  %37 = icmp ne i32 %36, 0
  %38 = xor i1 %37, true
  br label %39

39:                                               ; preds = %33, %29
  %40 = phi i1 [ false, %29 ], [ %38, %33 ]
  br i1 %40, label %41, label %75

41:                                               ; preds = %39
  %42 = load ptr, ptr %6, align 8
  %43 = getelementptr inbounds %struct.private_data, ptr %42, i32 0, i32 19
  %44 = load ptr, ptr %43, align 8
  %45 = load ptr, ptr %6, align 8
  %46 = getelementptr inbounds %struct.private_data, ptr %45, i32 0, i32 20
  %47 = getelementptr inbounds [65300 x i8], ptr %46, i64 0, i64 0
  %48 = icmp ugt ptr %44, %47
  br i1 %48, label %49, label %57

49:                                               ; preds = %41
  %50 = load ptr, ptr %6, align 8
  %51 = getelementptr inbounds %struct.private_data, ptr %50, i32 0, i32 19
  %52 = load ptr, ptr %51, align 8
  %53 = getelementptr inbounds i8, ptr %52, i32 -1
  store ptr %53, ptr %51, align 8
  %54 = load i8, ptr %53, align 1
  %55 = load ptr, ptr %7, align 8
  %56 = getelementptr inbounds i8, ptr %55, i32 1
  store ptr %56, ptr %7, align 8
  store i8 %54, ptr %55, align 1
  br label %74

57:                                               ; preds = %41
  %58 = load ptr, ptr %4, align 8
  %59 = call i32 @next_code(ptr noundef %58)
  store i32 %59, ptr %10, align 4
  %60 = load i32, ptr %10, align 4
  %61 = icmp eq i32 %60, -1
  br i1 %61, label %62, label %66

62:                                               ; preds = %57
  %63 = load i32, ptr %10, align 4
  %64 = load ptr, ptr %6, align 8
  %65 = getelementptr inbounds %struct.private_data, ptr %64, i32 0, i32 9
  store i32 %63, ptr %65, align 4
  br label %73

66:                                               ; preds = %57
  %67 = load i32, ptr %10, align 4
  %68 = icmp ne i32 %67, 0
  br i1 %68, label %69, label %72

69:                                               ; preds = %66
  %70 = load i32, ptr %10, align 4
  %71 = sext i32 %70 to i64
  store i64 %71, ptr %3, align 8
  br label %83

72:                                               ; preds = %66
  br label %73

73:                                               ; preds = %72, %62
  br label %74

74:                                               ; preds = %73, %49
  br label %29, !llvm.loop !10

75:                                               ; preds = %39
  %76 = load ptr, ptr %8, align 8
  %77 = load ptr, ptr %5, align 8
  store ptr %76, ptr %77, align 8
  %78 = load ptr, ptr %7, align 8
  %79 = load ptr, ptr %8, align 8
  %80 = ptrtoint ptr %78 to i64
  %81 = ptrtoint ptr %79 to i64
  %82 = sub i64 %80, %81
  store i64 %82, ptr %3, align 8
  br label %83

83:                                               ; preds = %75, %69, %18
  %84 = load i64, ptr %3, align 8
  ret i64 %84
}