; Function Attrs: nounwind uwtable
define internal i64 @compress_filter_read(ptr noundef readonly captures(none) %0, ptr noundef writeonly captures(none) %1) #0 {
  %3 = getelementptr inbounds nuw i8, ptr %0, i64 40
  %4 = load ptr, ptr %3, align 8
  %5 = getelementptr inbounds nuw i8, ptr %4, i64 60
  %6 = load i32, ptr %5, align 4
  %.not = icmp eq i32 %6, 0
  br i1 %.not, label %8, label %7

7:                                                ; preds = %2
  store ptr null, ptr %1, align 8
  br label %36

8:                                                ; preds = %2
  %9 = getelementptr inbounds nuw i8, ptr %4, i64 48
  %10 = load ptr, ptr %9, align 8
  %11 = getelementptr inbounds nuw i8, ptr %4, i64 40
  %12 = load i64, ptr %11, align 8
  %13 = getelementptr inbounds i8, ptr %10, i64 %12
  %14 = icmp sgt i64 %12, 0
  br i1 %14, label %.lr.ph, label %.critedge

.lr.ph:                                           ; preds = %8
  %15 = getelementptr inbounds nuw i8, ptr %4, i64 196704
  %16 = getelementptr inbounds nuw i8, ptr %4, i64 196712
  br label %17

17:                                               ; preds = %.lr.ph, %31
  %.02330 = phi ptr [ %10, %.lr.ph ], [ %.1, %31 ]
  %18 = load i32, ptr %5, align 4
  %.not27 = icmp eq i32 %18, 0
  br i1 %.not27, label %19, label %.critedge

19:                                               ; preds = %17
  %20 = load ptr, ptr %15, align 8
  %21 = icmp ugt ptr %20, %16
  br i1 %21, label %22, label %26

22:                                               ; preds = %19
  %23 = getelementptr inbounds i8, ptr %20, i64 -1
  store ptr %23, ptr %15, align 8
  %24 = load i8, ptr %23, align 1
  %25 = getelementptr inbounds nuw i8, ptr %.02330, i64 1
  store i8 %24, ptr %.02330, align 1
  br label %31

26:                                               ; preds = %19
  %27 = tail call fastcc i32 @next_code(ptr noundef %0)
  switch i32 %27, label %29 [
    i32 -1, label %28
    i32 0, label %31
  ]

28:                                               ; preds = %26
  store i32 -1, ptr %5, align 4
  br label %31

29:                                               ; preds = %26
  %30 = sext i32 %27 to i64
  br label %36

31:                                               ; preds = %26, %28, %22
  %.1 = phi ptr [ %25, %22 ], [ %.02330, %28 ], [ %.02330, %26 ]
  %32 = icmp ult ptr %.1, %13
  br i1 %32, label %17, label %.critedge, !llvm.loop !10

.critedge:                                        ; preds = %17, %31, %8
  %.023.lcssa = phi ptr [ %10, %8 ], [ %.1, %31 ], [ %.02330, %17 ]
  store ptr %10, ptr %1, align 8
  %33 = ptrtoint ptr %.023.lcssa to i64
  %34 = ptrtoint ptr %10 to i64
  %35 = sub i64 %33, %34
  br label %36

36:                                               ; preds = %.critedge, %29, %7
  %.0 = phi i64 [ 0, %7 ], [ %30, %29 ], [ %35, %.critedge ]
  ret i64 %.0
}